(dp1
S'mean_bias'
p2
ccopy_reg
_reconstructor
p3
(cpandas.core.frame
DataFrame
p4
c__builtin__
object
p5
NtRp6
g3
(cpandas.core.internals
BlockManager
p7
g5
NtRp8
((lp9
cpandas.core.index
_new_Index
p10
(cpandas.core.index
Index
p11
(dp12
S'data'
p13
cnumpy.core.multiarray
_reconstruct
p14
(cnumpy
ndarray
p15
(I0
tS'b'
tRp16
(I1
(I3
tcnumpy
dtype
p17
(S'O8'
I0
I1
tRp18
(I3
S'|'
NNNI-1
I-1
I63
tbI00
(lp19
S'Boston 16 Nm East Of Boston'
p20
aS'Buoy A01'
p21
aS'Boston, MA'
p22
atbsS'name'
p23
NstRp24
ag10
(g11
(dp25
g13
g14
(g15
(I0
tS'b'
tRp26
(I1
(I3
tg18
I00
(lp27
S'COAWST_4'
p28
aS'G1SST__SST'
p29
aS'HYCOM'
p30
atbsg23
NstRp31
a(lp32
g14
(g15
(I0
tS'b'
tRp33
(I1
(I3
I3
tg17
(S'f8'
I0
I1
tRp34
(I3
S'<'
NNNI-1
I-1
I0
tbI00
S'\x18p\xc6\xb5\x8c\xe2\xec?\x1a\xd7"A\x81c\xe1?D\x1b>\x7f\xd2!\xfe?\x886|\xfe\xb8M\xf3?\x82\x9a\n\xd1\xce\xad\xe4?\xc2\x803\xae\x8d\xae\xec?\xebS\x17\xff[-\x12@r\x80\xb8\x9b~\xd9\xe7?\x00\x00\x00\x00\x00\x00\xf8\x7f'
tba(lp35
g10
(g11
(dp36
g13
g14
(g15
(I0
tS'b'
tRp37
(I1
(I3
tg18
I00
(lp38
g20
ag21
ag22
atbsg23
NstRp39
a(dp40
S'0.14.1'
p41
(dp42
S'axes'
p43
g9
sS'blocks'
p44
(lp45
(dp46
S'mgr_locs'
p47
c__builtin__
slice
p48
(I0
I3
I1
tRp49
sS'values'
p50
g33
sasstbbsS'r2'
p51
g3
(g4
g5
NtRp52
g3
(g7
g5
NtRp53
((lp54
g10
(g11
(dp55
g13
g14
(g15
(I0
tS'b'
tRp56
(I1
(I3
tg18
I00
(lp57
g20
ag21
ag22
atbsg23
NstRp58
ag10
(g11
(dp59
g13
g14
(g15
(I0
tS'b'
tRp60
(I1
(I3
tg18
I00
(lp61
S'COAWST_4'
p62
aS'G1SST__SST'
p63
aS'HYCOM'
p64
atbsg23
NstRp65
a(lp66
g14
(g15
(I0
tS'b'
tRp67
(I1
(I3
I3
tg34
I00
S'\xac2\'w7\xe6\xe3?\xba\xc1Ms\xc3\xb3\xde?\xda\xe4\xfci\xd1\xcd\x08\xc0"`Kk,\xfd\xd2?\xcc\xd0^Eq\x07\xe6?\xa0o\xacQ\xe3z\xbc\xbfT\x9b@]I\xf4\xd9?\xc4\xed\xfd\xdavV\xe0?\x00\x00\x00\x00\x00\x00\xf8\x7f'
tba(lp68
g10
(g11
(dp69
g13
g14
(g15
(I0
tS'b'
tRp70
(I1
(I3
tg18
I00
(lp71
g20
ag21
ag22
atbsg23
NstRp72
a(dp73
g41
(dp74
g43
g54
sg44
(lp75
(dp76
g47
g48
(I0
I3
I1
tRp77
sg50
g67
sasstbbsS'rmse'
p78
g3
(g4
g5
NtRp79
g3
(g7
g5
NtRp80
((lp81
g10
(g11
(dp82
g13
g14
(g15
(I0
tS'b'
tRp83
(I1
(I3
tg18
I00
(lp84
g20
ag21
ag22
atbsg23
NstRp85
ag10
(g11
(dp86
g13
g14
(g15
(I0
tS'b'
tRp87
(I1
(I3
tg18
I00
(lp88
S'COAWST_4'
p89
aS'G1SST__SST'
p90
aS'HYCOM'
p91
atbsg23
NstRp92
a(lp93
g14
(g15
(I0
tS'b'
tRp94
(I1
(I3
I3
tg34
I00
S':\x00\x10\x83d\xfe\xe1?\x14\x0b\xee\x14*\x1b\xe5?\xa5\x05\x08\xecZ\xa0\xfd?\x19\xc7\x8a\xd3\x93\xde\xec?}K\x16\xeeG7\xe3?\xd4\xd7lV\xfd$\xf2?\x9f\x8f?\xe1\x8c\xa3\xea?\xf6\x1e\xaf\x84\xeb+\xe8?\x00\x00\x00\x00\x00\x00\xf8\x7f'
tba(lp95
g10
(g11
(dp96
g13
g14
(g15
(I0
tS'b'
tRp97
(I1
(I3
tg18
I00
(lp98
g20
ag21
ag22
atbsg23
NstRp99
a(dp100
g41
(dp101
g43
g81
sg44
(lp102
(dp103
g47
g48
(I0
I3
I1
tRp104
sg50
g94
sasstbbs.