(dp1
S'mean_bias'
p2
ccopy_reg
_reconstructor
p3
(cpandas.core.frame
DataFrame
p4
c__builtin__
object
p5
NtRp6
(dp7
S'_metadata'
p8
(lp9
sS'_typ'
p10
S'dataframe'
p11
sS'_data'
p12
g3
(cpandas.core.internals
BlockManager
p13
g5
NtRp14
((lp15
cpandas.indexes.base
_new_Index
p16
(cpandas.indexes.base
Index
p17
(dp18
S'data'
p19
cnumpy.core.multiarray
_reconstruct
p20
(cnumpy
ndarray
p21
(I0
tS'b'
tRp22
(I1
(I3
tcnumpy
dtype
p23
(S'O8'
I0
I1
tRp24
(I3
S'|'
NNNI-1
I-1
I63
tbI00
(lp25
S'Boston 16 Nm East Of Boston'
p26
aS'Buoy A01'
p27
aS'Boston, MA'
p28
atbsS'name'
p29
NstRp30
ag16
(g17
(dp31
g19
g20
(g21
(I0
tS'b'
tRp32
(I1
(I2
tg24
I00
(lp33
S'COAWST_4'
p34
aS'HYCOM'
p35
atbsg29
NstRp36
a(lp37
g20
(g21
(I0
tS'b'
tRp38
(I1
(I3
I2
tg23
(S'f8'
I0
I1
tRp39
(I3
S'<'
NNNI-1
I-1
I0
tbI00
S'\x9a\xda(.\x1e\x9e\xe9?\x9b\x99\x99y\xffU\xfb?aC\x1a\xf9\x1d\xd2\xe9?\x88\x88\x88\x08X\x9b\xf9?\xe96}\x08\xd9D\x16@\x00\x00\x00\x00\x00\x00\xf8\x7f'
tba(lp40
g16
(g17
(dp41
g19
g20
(g21
(I0
tS'b'
tRp42
(I1
(I3
tg24
I00
(lp43
g26
ag27
ag28
atbsg29
NstRp44
a(dp45
S'0.14.1'
p46
(dp47
S'axes'
p48
g15
sS'blocks'
p49
(lp50
(dp51
S'mgr_locs'
p52
c__builtin__
slice
p53
(I0
I3
I1
tRp54
sS'values'
p55
g38
sasstbsbsS'r2'
p56
g3
(g4
g5
NtRp57
(dp58
g8
g9
sg10
g11
sg12
g3
(g13
g5
NtRp59
((lp60
g16
(g17
(dp61
g19
g20
(g21
(I0
tS'b'
tRp62
(I1
(I3
tg24
I00
(lp63
g26
ag27
ag28
atbsg29
NstRp64
ag16
(g17
(dp65
g19
g20
(g21
(I0
tS'b'
tRp66
(I1
(I2
tg24
I00
(lp67
S'COAWST_4'
p68
aS'HYCOM'
p69
atbsg29
NstRp70
a(lp71
g20
(g21
(I0
tS'b'
tRp72
(I1
(I3
I2
tg39
I00
S'\x008\x1d\x9dT\x15|?\x1e)\xe1QO \x1c\xc0\xa0<V\xeb\x9f\xa3\xc9\xbfb:\x10\xba\x11\xd2\r\xc0\x9c\xa0\xcbz\xc4\xdd\xd8?\x00\x00\x00\x00\x00\x00\xf8\x7f'
tba(lp73
g16
(g17
(dp74
g19
g20
(g21
(I0
tS'b'
tRp75
(I1
(I3
tg24
I00
(lp76
g26
ag27
ag28
atbsg29
NstRp77
a(dp78
g46
(dp79
g48
g60
sg49
(lp80
(dp81
g52
g53
(I0
I3
I1
tRp82
sg55
g72
sasstbsbsS'rmse'
p83
g3
(g4
g5
NtRp84
(dp85
g8
g9
sg10
g11
sg12
g3
(g13
g5
NtRp86
((lp87
g16
(g17
(dp88
g19
g20
(g21
(I0
tS'b'
tRp89
(I1
(I3
tg24
I00
(lp90
g26
ag27
ag28
atbsg29
NstRp91
ag16
(g17
(dp92
g19
g20
(g21
(I0
tS'b'
tRp93
(I1
(I2
tg24
I00
(lp94
S'COAWST_4'
p95
aS'HYCOM'
p96
atbsg29
NstRp97
a(lp98
g20
(g21
(I0
tS'b'
tRp99
(I1
(I3
I2
tg39
I00
S'=|ng\rV\xe6?\x1d\xce\xf1]\xe78\xfa?O\xaa\x0e\x19\xc0\xad\xe7?\x8c\xb8\xe6\xe1 \x97\xfc?\xba\xe5z\xc6\xa3\xc9\xdc?\x00\x00\x00\x00\x00\x00\xf8\x7f'
tba(lp100
g16
(g17
(dp101
g19
g20
(g21
(I0
tS'b'
tRp102
(I1
(I3
tg24
I00
(lp103
g26
ag27
ag28
atbsg29
NstRp104
a(dp105
g46
(dp106
g48
g87
sg49
(lp107
(dp108
g52
g53
(I0
I3
I1
tRp109
sg55
g99
sasstbsbs.