(dp1
S'start'
p2
cdatetime
datetime
p3
(S'\x07\xdf\x08\x08\x00\x00\x00\x00\x00\x00'
cpytz
_UTC
p4
(tRp5
tRp6
sS'bbox'
p7
(lp8
F-71.549999999999997
aF41.780000000000001
aF-70.319999999999993
aF42.880000000000003
asS'run_name'
p9
S'2015-08-22'
p10
sS'units'
p11
ccopy_reg
_reconstructor
p12
(ciris.unit
Unit
p13
c__builtin__
object
p14
NtRp15
(dp16
S'calendar'
p17
NsS'unit_text'
p18
S'celsius'
p19
sbsS'stop'
p20
g3
(S'\x07\xdf\x08\x16\x00\x00\x00\x00\x00\x00'
g5
tRp21
sS'name_list'
p22
(lp23
S'sea_water_temperature'
p24
aS'sea_surface_temperature'
p25
aS'sea_water_potential_temperature'
p26
aS'equivalent_potential_temperature'
p27
aS'sea_water_conservative_temperature'
p28
aS'pseudo_equivalent_potential_temperature'
p29
as.