(dp1
S'low_pass_resampled_3H_r2'
p2
ccopy_reg
_reconstructor
p3
(cpandas.core.frame
DataFrame
p4
c__builtin__
object
p5
NtRp6
g3
(cpandas.core.internals
BlockManager
p7
g5
NtRp8
((lp9
cpandas.core.index
_new_Index
p10
(cpandas.core.index
Index
p11
(dp12
S'data'
p13
cnumpy.core.multiarray
_reconstruct
p14
(cnumpy
ndarray
p15
(I0
tS'b'
tRp16
(I1
(I2
tcnumpy
dtype
p17
(S'O8'
I0
I1
tRp18
(I3
S'|'
NNNI-1
I-1
I63
tbI00
(lp19
S'Boston, MA'
p20
aS'Providence, RI'
p21
atbsS'name'
p22
NstRp23
ag10
(g11
(dp24
g13
g14
(g15
(I0
tS'b'
tRp25
(I1
(I3
tg18
I00
(lp26
S'COAWST_4'
p27
aS'NECOFS_FVCOM'
p28
aS'NECOFS_GOM3_FVCOM'
p29
atbsg22
NstRp30
a(lp31
g14
(g15
(I0
tS'b'
tRp32
(I1
(I2
I3
tg17
(S'f8'
I0
I1
tRp33
(I3
S'<'
NNNI-1
I-1
I0
tbI00
S'\x90//\xfd\xb1\xe0\xbb?8\x84l\x0e^\x7f\xc0\xbf\xa8\x873\x15\xc4\xff\xb6?\x00\x00\x00\x00\x00\x00\xf8\x7f\x00\x00\x00\x00\x00\x00\xf8\x7f\x81v\x0fp\x88\n\x1a\xc0'
tba(lp34
g10
(g11
(dp35
g13
g14
(g15
(I0
tS'b'
tRp36
(I1
(I2
tg18
I00
(lp37
g20
ag21
atbsg22
NstRp38
a(dp39
S'0.14.1'
p40
(dp41
S'axes'
p42
g9
sS'blocks'
p43
(lp44
(dp45
S'mgr_locs'
p46
c__builtin__
slice
p47
(I0
I2
I1
tRp48
sS'values'
p49
g32
sasstbbsS'mean_bias'
p50
g3
(g4
g5
NtRp51
g3
(g7
g5
NtRp52
((lp53
g10
(g11
(dp54
g13
g14
(g15
(I0
tS'b'
tRp55
(I1
(I2
tg18
I00
(lp56
g20
ag21
atbsg22
NstRp57
ag10
(g11
(dp58
g13
g14
(g15
(I0
tS'b'
tRp59
(I1
(I3
tg18
I00
(lp60
S'COAWST_4'
p61
aS'NECOFS_FVCOM'
p62
aS'NECOFS_GOM3_FVCOM'
p63
atbsg22
NstRp64
a(lp65
g14
(g15
(I0
tS'b'
tRp66
(I1
(I2
I3
tg33
I00
S'\xa7\xeb-\xd3k\xb2\x16@+6\x89\x8f\xbeQ\x0f@\xda\xed\xd5\x92\xe8\xae\xf1?\x00\x00\x00\x00\x00\x00\xf8\x7f\x00\x00\x00\x00\x00\x00\xf8\x7f/\r\xd4\xe7(\xb5\xf0?'
tba(lp67
g10
(g11
(dp68
g13
g14
(g15
(I0
tS'b'
tRp69
(I1
(I2
tg18
I00
(lp70
g20
ag21
atbsg22
NstRp71
a(dp72
g40
(dp73
g42
g53
sg43
(lp74
(dp75
g46
g47
(I0
I2
I1
tRp76
sg49
g66
sasstbbsS'low_pass_r2'
p77
g3
(g4
g5
NtRp78
g3
(g7
g5
NtRp79
((lp80
g10
(g11
(dp81
g13
g14
(g15
(I0
tS'b'
tRp82
(I1
(I2
tg18
I00
(lp83
g20
ag21
atbsg22
NstRp84
ag10
(g11
(dp85
g13
g14
(g15
(I0
tS'b'
tRp86
(I1
(I3
tg18
I00
(lp87
S'COAWST_4'
p88
aS'NECOFS_FVCOM'
p89
aS'NECOFS_GOM3_FVCOM'
p90
atbsg22
NstRp91
a(lp92
g14
(g15
(I0
tS'b'
tRp93
(I1
(I2
I3
tg33
I00
S'\xac\xbe\xb3?\x9b\x90\xf1\xbf\xc3?\xf4\xd9\xf1_\x10\xc0\xba`\x95\x9a\xae\xd2\xfc\xbf\x00\x00\x00\x00\x00\x00\xf8\x7f\x00\x00\x00\x00\x00\x00\xf8\x7f\xbb.\xecPX\xe7#\xc0'
tba(lp94
g10
(g11
(dp95
g13
g14
(g15
(I0
tS'b'
tRp96
(I1
(I2
tg18
I00
(lp97
g20
ag21
atbsg22
NstRp98
a(dp99
g40
(dp100
g42
g80
sg43
(lp101
(dp102
g46
g47
(I0
I2
I1
tRp103
sg49
g93
sasstbbsS'r2'
p104
g3
(g4
g5
NtRp105
g3
(g7
g5
NtRp106
((lp107
g10
(g11
(dp108
g13
g14
(g15
(I0
tS'b'
tRp109
(I1
(I2
tg18
I00
(lp110
g20
ag21
atbsg22
NstRp111
ag10
(g11
(dp112
g13
g14
(g15
(I0
tS'b'
tRp113
(I1
(I3
tg18
I00
(lp114
S'COAWST_4'
p115
aS'NECOFS_FVCOM'
p116
aS'NECOFS_GOM3_FVCOM'
p117
atbsg22
NstRp118
a(lp119
g14
(g15
(I0
tS'b'
tRp120
(I1
(I2
I3
tg33
I00
S'\x08\x7f\xa1\xcd\x04\xb0\xba?`\xa8\x81\xf9\xe6"\xbf\xbf\xc8u\xf4$\xd0\xe9\xb5?\x00\x00\x00\x00\x00\x00\xf8\x7f\x00\x00\x00\x00\x00\x00\xf8\x7f\xc3\x1f,\x17\xb3\xee\x19\xc0'
tba(lp121
g10
(g11
(dp122
g13
g14
(g15
(I0
tS'b'
tRp123
(I1
(I2
tg18
I00
(lp124
g20
ag21
atbsg22
NstRp125
a(dp126
g40
(dp127
g42
g107
sg43
(lp128
(dp129
g46
g47
(I0
I2
I1
tRp130
sg49
g120
sasstbbsS'rmse'
p131
g3
(g4
g5
NtRp132
g3
(g7
g5
NtRp133
((lp134
g10
(g11
(dp135
g13
g14
(g15
(I0
tS'b'
tRp136
(I1
(I2
tg18
I00
(lp137
g20
ag21
atbsg22
NstRp138
ag10
(g11
(dp139
g13
g14
(g15
(I0
tS'b'
tRp140
(I1
(I3
tg18
I00
(lp141
S'COAWST_4'
p142
aS'NECOFS_FVCOM'
p143
aS'NECOFS_GOM3_FVCOM'
p144
atbsg22
NstRp145
a(lp146
g14
(g15
(I0
tS'b'
tRp147
(I1
(I2
I3
tg33
I00
S'\x1f:\x16\xab\x16\xf5\xdd?F\xd3\x12c\xdb\xc2\xe0?rG\xfe\x02\x83D\xde?\x00\x00\x00\x00\x00\x00\xf8\x7f\x00\x00\x00\x00\x00\x00\xf8\x7fY\xb0l\x99\xd2\xd5\xf1?'
tba(lp148
g10
(g11
(dp149
g13
g14
(g15
(I0
tS'b'
tRp150
(I1
(I2
tg18
I00
(lp151
g20
ag21
atbsg22
NstRp152
a(dp153
g40
(dp154
g42
g134
sg43
(lp155
(dp156
g46
g47
(I0
I2
I1
tRp157
sg49
g147
sasstbbs.