(dp1
S'low_pass_resampled_3H_r2'
p2
ccopy_reg
_reconstructor
p3
(cpandas.core.frame
DataFrame
p4
c__builtin__
object
p5
NtRp6
g3
(cpandas.core.internals
BlockManager
p7
g5
NtRp8
((lp9
cpandas.core.index
_new_Index
p10
(cpandas.core.index
Index
p11
(dp12
S'data'
p13
cnumpy.core.multiarray
_reconstruct
p14
(cnumpy
ndarray
p15
(I0
tS'b'
tRp16
(I1
(I2
tcnumpy
dtype
p17
(S'O8'
I0
I1
tRp18
(I3
S'|'
NNNI-1
I-1
I63
tbI00
(lp19
S'Boston, MA'
p20
aS'Providence, RI'
p21
atbsS'name'
p22
NstRp23
ag10
(g11
(dp24
g13
g14
(g15
(I0
tS'b'
tRp25
(I1
(I1
tg18
I00
(lp26
S'COAWST_4'
p27
atbsg22
NstRp28
a(lp29
g14
(g15
(I0
tS'b'
tRp30
(I1
(I2
I1
tg17
(S'f8'
I0
I1
tRp31
(I3
S'<'
NNNI-1
I-1
I0
tbI00
S'\xc0\x11?\x82\xa8/\xbc?\x00\x00\x00\x00\x00\x00\xf8\x7f'
tba(lp32
g10
(g11
(dp33
g13
g14
(g15
(I0
tS'b'
tRp34
(I1
(I2
tg18
I00
(lp35
g20
ag21
atbsg22
NstRp36
a(dp37
S'0.14.1'
p38
(dp39
S'axes'
p40
g9
sS'blocks'
p41
(lp42
(dp43
S'mgr_locs'
p44
c__builtin__
slice
p45
(I0
I2
I1
tRp46
sS'values'
p47
g30
sasstbbsS'mean_bias'
p48
g3
(g4
g5
NtRp49
g3
(g7
g5
NtRp50
((lp51
g10
(g11
(dp52
g13
g14
(g15
(I0
tS'b'
tRp53
(I1
(I2
tg18
I00
(lp54
g20
ag21
atbsg22
NstRp55
ag10
(g11
(dp56
g13
g14
(g15
(I0
tS'b'
tRp57
(I1
(I1
tg18
I00
(lp58
S'COAWST_4'
p59
atbsg22
NstRp60
a(lp61
g14
(g15
(I0
tS'b'
tRp62
(I1
(I2
I1
tg31
I00
S'\xee$\x14\xe8\xc1\xb8\x16@\x00\x00\x00\x00\x00\x00\xf8\x7f'
tba(lp63
g10
(g11
(dp64
g13
g14
(g15
(I0
tS'b'
tRp65
(I1
(I2
tg18
I00
(lp66
g20
ag21
atbsg22
NstRp67
a(dp68
g38
(dp69
g40
g51
sg41
(lp70
(dp71
g44
g45
(I0
I2
I1
tRp72
sg47
g62
sasstbbsS'low_pass_r2'
p73
g3
(g4
g5
NtRp74
g3
(g7
g5
NtRp75
((lp76
g10
(g11
(dp77
g13
g14
(g15
(I0
tS'b'
tRp78
(I1
(I2
tg18
I00
(lp79
g20
ag21
atbsg22
NstRp80
ag10
(g11
(dp81
g13
g14
(g15
(I0
tS'b'
tRp82
(I1
(I1
tg18
I00
(lp83
S'COAWST_4'
p84
atbsg22
NstRp85
a(lp86
g14
(g15
(I0
tS'b'
tRp87
(I1
(I2
I1
tg31
I00
S'\x9e$\x02FU\xbf\xf1\xbf\x00\x00\x00\x00\x00\x00\xf8\x7f'
tba(lp88
g10
(g11
(dp89
g13
g14
(g15
(I0
tS'b'
tRp90
(I1
(I2
tg18
I00
(lp91
g20
ag21
atbsg22
NstRp92
a(dp93
g38
(dp94
g40
g76
sg41
(lp95
(dp96
g44
g45
(I0
I2
I1
tRp97
sg47
g87
sasstbbsS'r2'
p98
g3
(g4
g5
NtRp99
g3
(g7
g5
NtRp100
((lp101
g10
(g11
(dp102
g13
g14
(g15
(I0
tS'b'
tRp103
(I1
(I2
tg18
I00
(lp104
g20
ag21
atbsg22
NstRp105
ag10
(g11
(dp106
g13
g14
(g15
(I0
tS'b'
tRp107
(I1
(I1
tg18
I00
(lp108
S'COAWST_4'
p109
atbsg22
NstRp110
a(lp111
g14
(g15
(I0
tS'b'
tRp112
(I1
(I2
I1
tg31
I00
S'\xc8m+\xe0\xc8\xed\xba?\x00\x00\x00\x00\x00\x00\xf8\x7f'
tba(lp113
g10
(g11
(dp114
g13
g14
(g15
(I0
tS'b'
tRp115
(I1
(I2
tg18
I00
(lp116
g20
ag21
atbsg22
NstRp117
a(dp118
g38
(dp119
g40
g101
sg41
(lp120
(dp121
g44
g45
(I0
I2
I1
tRp122
sg47
g112
sasstbbsS'rmse'
p123
g3
(g4
g5
NtRp124
g3
(g7
g5
NtRp125
((lp126
g10
(g11
(dp127
g13
g14
(g15
(I0
tS'b'
tRp128
(I1
(I2
tg18
I00
(lp129
g20
ag21
atbsg22
NstRp130
ag10
(g11
(dp131
g13
g14
(g15
(I0
tS'b'
tRp132
(I1
(I1
tg18
I00
(lp133
S'COAWST_4'
p134
atbsg22
NstRp135
a(lp136
g14
(g15
(I0
tS'b'
tRp137
(I1
(I2
I1
tg31
I00
S'\x059BY\xf9\x0f\xde?\x00\x00\x00\x00\x00\x00\xf8\x7f'
tba(lp138
g10
(g11
(dp139
g13
g14
(g15
(I0
tS'b'
tRp140
(I1
(I2
tg18
I00
(lp141
g20
ag21
atbsg22
NstRp142
a(dp143
g38
(dp144
g40
g126
sg41
(lp145
(dp146
g44
g45
(I0
I2
I1
tRp147
sg47
g137
sasstbbs.